; Function Attrs: mustprogress uwtable
define noundef i32 @_Z43tsi_create_ssl_server_handshaker_factory_exPK25tsi_ssl_pem_key_cert_pairmPKc35tsi_client_certificate_request_typeS3_PS3_tPP33tsi_ssl_server_handshaker_factory(ptr noundef %0, i64 noundef %1, ptr noundef %2, i32 noundef %3, ptr noundef %4, ptr noundef %5, i16 noundef zeroext %6, ptr noundef %7) local_unnamed_addr #3 personality ptr @__gxx_personality_v0 {
  %9 = alloca %struct.tsi_ssl_server_handshaker_options, align 8
  call void @llvm.lifetime.start.p0(i64 120, ptr nonnull %9) #32
  %10 = getelementptr inbounds nuw i8, ptr %9, i64 32
  %11 = getelementptr inbounds nuw i8, ptr %9, i64 56
  %12 = getelementptr inbounds nuw i8, ptr %9, i64 76
  call void @llvm.memset.p0.i64(ptr noundef nonnull align 8 dereferenceable(20) %11, i8 0, i64 20, i1 false)
  store i32 1, ptr %12, align 4, !tbaa !159
  %13 = getelementptr inbounds nuw i8, ptr %9, i64 80
  %14 = getelementptr inbounds nuw i8, ptr %9, i64 112
  call void @llvm.memset.p0.i64(ptr noundef nonnull align 8 dereferenceable(32) %13, i8 0, i64 32, i1 false)
  store i8 1, ptr %14, align 8, !tbaa !163
  store ptr %0, ptr %9, align 8, !tbaa !164
  %15 = getelementptr inbounds nuw i8, ptr %9, i64 8
  store i64 %1, ptr %15, align 8, !tbaa !165
  %16 = getelementptr inbounds nuw i8, ptr %9, i64 16
  store ptr %2, ptr %16, align 8, !tbaa !166
  %17 = getelementptr inbounds nuw i8, ptr %9, i64 24
  store i32 %3, ptr %17, align 8, !tbaa !167
  store ptr %4, ptr %10, align 8, !tbaa !168
  %18 = getelementptr inbounds nuw i8, ptr %9, i64 40
  store ptr %5, ptr %18, align 8, !tbaa !169
  %19 = getelementptr inbounds nuw i8, ptr %9, i64 48
  store i16 %6, ptr %19, align 8, !tbaa !170
  %20 = invoke noundef i32 @_Z53tsi_create_ssl_server_handshaker_factory_with_optionsPK33tsi_ssl_server_handshaker_optionsPP33tsi_ssl_server_handshaker_factory(ptr noundef nonnull %9, ptr noundef %7)
          to label %_ZN33tsi_ssl_server_handshaker_optionsD2Ev.exit unwind label %21

_ZN33tsi_ssl_server_handshaker_optionsD2Ev.exit:  ; preds = %8
  call void @llvm.lifetime.end.p0(i64 120, ptr nonnull %9) #32
  ret i32 %20

21:                                               ; preds = %8
  %22 = landingpad { ptr, i32 }
          cleanup
  call void @_ZN33tsi_ssl_server_handshaker_optionsD2Ev(ptr noundef nonnull align 8 dereferenceable(113) %9) #32
  call void @llvm.lifetime.end.p0(i64 120, ptr nonnull %9) #32
  resume { ptr, i32 } %22
}